target datalayout = "e-m:e-p270:32:32-p271:32:32-p272:64:64-i64:64-i128:128-f80:128-n8:16:32:64-S128"
target triple = "x86_64-pc-linux-gnu"

%"class.smt2::scanner" = type { ptr, i8, i32, i8, i8, i32, i32, %class.symbol, %class.rational, i32, [256 x i8], [1024 x i8], i32, i32, %class.svector, ptr, i8, %class.svector, %class.svector }
%class.symbol = type { ptr }
%class.rational = type { %class.mpq }
%class.mpq = type { %class.mpz, %class.mpz }
%class.mpz = type { i32, i8, ptr }
%class.svector = type { %class.vector }
%class.vector = type { ptr }

@_ZN8rational13g_mpq_managerE = external global ptr, align 8

; Function Attrs: mustprogress uwtable
define linkonce_odr hidden void @_ZN11mpq_managerILb1EE3negER3mpq(ptr noundef nonnull align 8 dereferenceable(728) %0, ptr noundef nonnull align 8 dereferenceable(32) %1) #4 comdat align 2 {
  %3 = alloca ptr, align 8
  %4 = alloca ptr, align 8
  store ptr %0, ptr %3, align 8, !tbaa !69
  store ptr %1, ptr %4, align 8, !tbaa !117
  %5 = load ptr, ptr %3, align 8
  %6 = load ptr, ptr %4, align 8, !tbaa !117
  %7 = getelementptr inbounds nuw %class.mpq, ptr %6, i32 0, i32 0
  call void @_ZN11mpz_managerILb1EE3negER3mpz(ptr noundef nonnull align 8 dereferenceable(600) %5, ptr noundef nonnull align 8 dereferenceable(16) %7)
  ret void
}

; Function Attrs: mustprogress nounwind uwtable
define linkonce_odr hidden noundef nonnull align 8 dereferenceable(728) ptr @_ZN8rational1mEv() #5 comdat align 2 {
  %1 = load ptr, ptr @_ZN8rational13g_mpq_managerE, align 8, !tbaa !69
  ret ptr %1
}

; Function Attrs: mustprogress uwtable
define linkonce_odr hidden noundef nonnull align 8 dereferenceable(8) ptr @_ZN6vectorIcLb0EjE9push_backEOc(ptr noundef nonnull align 8 dereferenceable(8) %0, ptr noundef nonnull align 1 dereferenceable(1) %1) #4 comdat align 2 {
  %3 = alloca ptr, align 8
  %4 = alloca ptr, align 8
  store ptr %0, ptr %3, align 8, !tbaa !34
  store ptr %1, ptr %4, align 8, !tbaa !36
  %5 = load ptr, ptr %3, align 8
  %6 = getelementptr inbounds nuw %class.vector, ptr %5, i32 0, i32 0
  %7 = load ptr, ptr %6, align 8, !tbaa !37
  %8 = icmp eq ptr %7, null
  br i1 %8, label %19, label %9

9:                                                ; preds = %2
  %10 = getelementptr inbounds nuw %class.vector, ptr %5, i32 0, i32 0
  %11 = load ptr, ptr %10, align 8, !tbaa !37
  %12 = getelementptr inbounds i32, ptr %11, i64 -1
  %13 = load i32, ptr %12, align 4, !tbaa !38
  %14 = getelementptr inbounds nuw %class.vector, ptr %5, i32 0, i32 0
  %15 = load ptr, ptr %14, align 8, !tbaa !37
  %16 = getelementptr inbounds i32, ptr %15, i64 -2
  %17 = load i32, ptr %16, align 4, !tbaa !38
  %18 = icmp eq i32 %13, %17
  br i1 %18, label %19, label %20

19:                                               ; preds = %9, %2
  call void @_ZN6vectorIcLb0EjE13expand_vectorEv(ptr noundef nonnull align 8 dereferenceable(8) %5)
  br label %20

20:                                               ; preds = %19, %9
  %21 = getelementptr inbounds nuw %class.vector, ptr %5, i32 0, i32 0
  %22 = load ptr, ptr %21, align 8, !tbaa !37
  %23 = getelementptr inbounds nuw %class.vector, ptr %5, i32 0, i32 0
  %24 = load ptr, ptr %23, align 8, !tbaa !37
  %25 = getelementptr inbounds i32, ptr %24, i64 -1
  %26 = load i32, ptr %25, align 4, !tbaa !38
  %27 = zext i32 %26 to i64
  %28 = getelementptr inbounds nuw i8, ptr %22, i64 %27
  %29 = load ptr, ptr %4, align 8, !tbaa !36
  %30 = load i8, ptr %29, align 1, !tbaa !32
  store i8 %30, ptr %28, align 1, !tbaa !32
  %31 = getelementptr inbounds nuw %class.vector, ptr %5, i32 0, i32 0
  %32 = load ptr, ptr %31, align 8, !tbaa !37
  %33 = getelementptr inbounds i32, ptr %32, i64 -1
  %34 = load i32, ptr %33, align 4, !tbaa !38
  %35 = add i32 %34, 1
  store i32 %35, ptr %33, align 4, !tbaa !38
  ret ptr %5
}

; Function Attrs: mustprogress nounwind uwtable
define linkonce_odr hidden void @_ZN6vectorIcLb0EjE5resetEv(ptr noundef nonnull align 8 dereferenceable(8) %0) #5 comdat align 2 {
  %2 = alloca ptr, align 8
  store ptr %0, ptr %2, align 8, !tbaa !34
  %3 = load ptr, ptr %2, align 8
  %4 = getelementptr inbounds nuw %class.vector, ptr %3, i32 0, i32 0
  %5 = load ptr, ptr %4, align 8, !tbaa !37
  %6 = icmp ne ptr %5, null
  br i1 %6, label %7, label %11

7:                                                ; preds = %1
  %8 = getelementptr inbounds nuw %class.vector, ptr %3, i32 0, i32 0
  %9 = load ptr, ptr %8, align 8, !tbaa !37
  %10 = getelementptr inbounds i32, ptr %9, i64 -1
  store i32 0, ptr %10, align 4, !tbaa !38
  br label %11

11:                                               ; preds = %7, %1
  ret void
}

; Function Attrs: mustprogress uwtable
define linkonce_odr hidden void @_ZN8rational3negEv(ptr noundef nonnull align 8 dereferenceable(32) %0) #4 comdat align 2 {
  %2 = alloca ptr, align 8
  store ptr %0, ptr %2, align 8, !tbaa !67
  %3 = load ptr, ptr %2, align 8
  %4 = call noundef nonnull align 8 dereferenceable(728) ptr @_ZN8rational1mEv()
  %5 = getelementptr inbounds nuw %class.rational, ptr %3, i32 0, i32 0
  call void @_ZN11mpq_managerILb1EE3negER3mpq(ptr noundef nonnull align 8 dereferenceable(728) %4, ptr noundef nonnull align 8 dereferenceable(32) %5)
  ret void
}

; Function Attrs: mustprogress nounwind uwtable
define linkonce_odr hidden noundef signext i8 @_ZNK4smt27scanner4currEv(ptr noundef nonnull align 8 dereferenceable(1408) %0) #5 comdat align 2 {
  %2 = alloca ptr, align 8
  store ptr %0, ptr %2, align 8, !tbaa !3
  %3 = load ptr, ptr %2, align 8
  %4 = getelementptr inbounds nuw %"class.smt2::scanner", ptr %3, i32 0, i32 3
  %5 = load i8, ptr %4, align 8, !tbaa !27
  ret i8 %5
}

; Function Attrs: mustprogress uwtable
define hidden noundef i32 @_ZN4smt27scanner18read_signed_numberEv(ptr noundef nonnull align 8 dereferenceable(1408) %0) #4 align 2 {
  %2 = alloca i32, align 4
  %3 = alloca ptr, align 8
  %4 = alloca i32, align 4
  %5 = alloca i8, align 1
  store ptr %0, ptr %3, align 8, !tbaa !3
  %6 = load ptr, ptr %3, align 8
  call void @_ZN4smt27scanner4nextEv(ptr noundef nonnull align 8 dereferenceable(1408) %6)
  %7 = call noundef signext i8 @_ZNK4smt27scanner4currEv(ptr noundef nonnull align 8 dereferenceable(1408) %6)
  %8 = sext i8 %7 to i32
  %9 = icmp sle i32 48, %8
  br i1 %9, label %10, label %18

10:                                               ; preds = %1
  %11 = call noundef signext i8 @_ZNK4smt27scanner4currEv(ptr noundef nonnull align 8 dereferenceable(1408) %6)
  %12 = sext i8 %11 to i32
  %13 = icmp sle i32 %12, 57
  br i1 %13, label %14, label %18

14:                                               ; preds = %10
  call void @llvm.lifetime.start.p0(i64 4, ptr %4) #3
  %15 = call noundef i32 @_ZN4smt27scanner11read_numberEv(ptr noundef nonnull align 8 dereferenceable(1408) %6)
  store i32 %15, ptr %4, align 4, !tbaa !71
  %16 = getelementptr inbounds nuw %"class.smt2::scanner", ptr %6, i32 0, i32 8
  call void @_ZN8rational3negEv(ptr noundef nonnull align 8 dereferenceable(32) %16)
  %17 = load i32, ptr %4, align 4, !tbaa !71
  store i32 %17, ptr %2, align 4
  call void @llvm.lifetime.end.p0(i64 4, ptr %4) #3
  br label %23

18:                                               ; preds = %10, %1
  %19 = getelementptr inbounds nuw %"class.smt2::scanner", ptr %6, i32 0, i32 14
  call void @_ZN6vectorIcLb0EjE5resetEv(ptr noundef nonnull align 8 dereferenceable(8) %19)
  %20 = getelementptr inbounds nuw %"class.smt2::scanner", ptr %6, i32 0, i32 14
  call void @llvm.lifetime.start.p0(i64 1, ptr %5) #3
  store i8 45, ptr %5, align 1, !tbaa !32
  %21 = call noundef nonnull align 8 dereferenceable(8) ptr @_ZN6vectorIcLb0EjE9push_backEOc(ptr noundef nonnull align 8 dereferenceable(8) %20, ptr noundef nonnull align 1 dereferenceable(1) %5)
  call void @llvm.lifetime.end.p0(i64 1, ptr %5) #3
  %22 = call noundef i32 @_ZN4smt27scanner16read_symbol_coreEv(ptr noundef nonnull align 8 dereferenceable(1408) %6)
  store i32 %22, ptr %2, align 4
  br label %23

23:                                               ; preds = %18, %14
  %24 = load i32, ptr %2, align 4
  ret i32 %24
}