; Function Attrs: mustprogress uwtable
define hidden noundef range(i32 4, 10) i32 @_ZN4smt27scanner18read_signed_numberEv(ptr noundef nonnull align 8 dereferenceable(1408) %0) local_unnamed_addr #3 align 2 {
  tail call void @_ZN4smt27scanner4nextEv(ptr noundef nonnull align 8 dereferenceable(1408) %0)
  %2 = getelementptr inbounds nuw i8, ptr %0, i64 16
  %3 = load i8, ptr %2, align 8, !tbaa !28
  %4 = add i8 %3, -48
  %or.cond = icmp ult i8 %4, 10
  br i1 %or.cond, label %5, label %9

5:                                                ; preds = %1
  %6 = tail call noundef i32 @_ZN4smt27scanner11read_numberEv(ptr noundef nonnull align 8 dereferenceable(1408) %0)
  %7 = getelementptr inbounds nuw i8, ptr %0, i64 40
  %8 = load ptr, ptr @_ZN8rational13g_mpq_managerE, align 8, !tbaa !64
  tail call void @_ZN11mpz_managerILb1EE3negER3mpz(ptr noundef nonnull align 8 dereferenceable(728) %8, ptr noundef nonnull align 8 dereferenceable(32) %7)
  br label %26

9:                                                ; preds = %1
  %10 = getelementptr inbounds nuw i8, ptr %0, i64 1368
  %11 = load ptr, ptr %10, align 8, !tbaa !22
  %.not.i = icmp eq ptr %11, null
  br i1 %.not.i, label %_ZN6vectorIcLb0EjE5resetEv.exit.thread, label %12

12:                                               ; preds = %9
  %13 = getelementptr inbounds i8, ptr %11, i64 -4
  store i32 0, ptr %13, align 4, !tbaa !23
  %14 = getelementptr inbounds i8, ptr %11, i64 -8
  %15 = load i32, ptr %14, align 4, !tbaa !23
  %16 = icmp eq i32 %15, 0
  br i1 %16, label %_ZN6vectorIcLb0EjE5resetEv.exit.thread, label %_ZN6vectorIcLb0EjE9push_backEOc.exit

_ZN6vectorIcLb0EjE5resetEv.exit.thread:           ; preds = %9, %12
  tail call void @_ZN6vectorIcLb0EjE13expand_vectorEv(ptr noundef nonnull align 8 dereferenceable(8) %10)
  %.pre.i = load ptr, ptr %10, align 8, !tbaa !22
  %.phi.trans.insert.i = getelementptr inbounds i8, ptr %.pre.i, i64 -4
  %.pre2.i = load i32, ptr %.phi.trans.insert.i, align 4, !tbaa !23
  %17 = zext i32 %.pre2.i to i64
  br label %_ZN6vectorIcLb0EjE9push_backEOc.exit

_ZN6vectorIcLb0EjE9push_backEOc.exit:             ; preds = %12, %_ZN6vectorIcLb0EjE5resetEv.exit.thread
  %18 = phi i64 [ %17, %_ZN6vectorIcLb0EjE5resetEv.exit.thread ], [ 0, %12 ]
  %19 = phi ptr [ %.pre.i, %_ZN6vectorIcLb0EjE5resetEv.exit.thread ], [ %11, %12 ]
  %20 = getelementptr inbounds nuw i8, ptr %19, i64 %18
  store i8 45, ptr %20, align 1, !tbaa !24
  %21 = load ptr, ptr %10, align 8, !tbaa !22
  %22 = getelementptr inbounds i8, ptr %21, i64 -4
  %23 = load i32, ptr %22, align 4, !tbaa !23
  %24 = add i32 %23, 1
  store i32 %24, ptr %22, align 4, !tbaa !23
  %25 = tail call noundef i32 @_ZN4smt27scanner16read_symbol_coreEv(ptr noundef nonnull align 8 dereferenceable(1408) %0)
  br label %26

26:                                               ; preds = %_ZN6vectorIcLb0EjE9push_backEOc.exit, %5
  %.0 = phi i32 [ %6, %5 ], [ %25, %_ZN6vectorIcLb0EjE9push_backEOc.exit ]
  ret i32 %.0
}